target datalayout = "e-m:e-p270:32:32-p271:32:32-p272:64:64-i64:64-i128:128-f80:128-n8:16:32:64-S128"
target triple = "x86_64-pc-linux-gnu"

%struct.s_x3 = type { i32, i32, ptr, ptr }
%struct.s_x3node = type { ptr, ptr, ptr, ptr }

@x3a = internal global ptr null, align 8

; Function Attrs: nounwind null_pointer_is_valid sspstrong uwtable
define hidden void @State_init() #2 {
  %1 = alloca i32, align 4
  %2 = load ptr, ptr @x3a, align 8
  %3 = icmp ne ptr %2, null
  br i1 %3, label %4, label %5

4:                                                ; preds = %0
  br label %45

5:                                                ; preds = %0
  %6 = call noalias ptr @malloc(i64 noundef 24) #23
  store ptr %6, ptr @x3a, align 8
  %7 = load ptr, ptr @x3a, align 8
  %8 = icmp ne ptr %7, null
  br i1 %8, label %9, label %45

9:                                                ; preds = %5
  %10 = load ptr, ptr @x3a, align 8
  %11 = getelementptr inbounds nuw %struct.s_x3, ptr %10, i32 0, i32 0
  store i32 128, ptr %11, align 8
  %12 = load ptr, ptr @x3a, align 8
  %13 = getelementptr inbounds nuw %struct.s_x3, ptr %12, i32 0, i32 1
  store i32 0, ptr %13, align 4
  %14 = call noalias ptr @calloc(i64 noundef 128, i64 noundef 40) #19
  %15 = load ptr, ptr @x3a, align 8
  %16 = getelementptr inbounds nuw %struct.s_x3, ptr %15, i32 0, i32 2
  store ptr %14, ptr %16, align 8
  %17 = load ptr, ptr @x3a, align 8
  %18 = getelementptr inbounds nuw %struct.s_x3, ptr %17, i32 0, i32 2
  %19 = load ptr, ptr %18, align 8
  %20 = icmp eq ptr %19, null
  br i1 %20, label %21, label %23

21:                                               ; preds = %9
  %22 = load ptr, ptr @x3a, align 8
  call void @free(ptr noundef %22) #18
  store ptr null, ptr @x3a, align 8
  br label %44

23:                                               ; preds = %9
  call void @llvm.lifetime.start.p0(i64 4, ptr %1) #18
  %24 = load ptr, ptr @x3a, align 8
  %25 = getelementptr inbounds nuw %struct.s_x3, ptr %24, i32 0, i32 2
  %26 = load ptr, ptr %25, align 8
  %27 = getelementptr %struct.s_x3node, ptr %26, i64 128
  %28 = load ptr, ptr @x3a, align 8
  %29 = getelementptr inbounds nuw %struct.s_x3, ptr %28, i32 0, i32 3
  store ptr %27, ptr %29, align 8
  store i32 0, ptr %1, align 4
  br label %30

30:                                               ; preds = %40, %23
  %31 = load i32, ptr %1, align 4
  %32 = icmp slt i32 %31, 128
  br i1 %32, label %33, label %43

33:                                               ; preds = %30
  %34 = load ptr, ptr @x3a, align 8
  %35 = getelementptr inbounds nuw %struct.s_x3, ptr %34, i32 0, i32 3
  %36 = load ptr, ptr %35, align 8
  %37 = load i32, ptr %1, align 4
  %38 = sext i32 %37 to i64
  %39 = getelementptr ptr, ptr %36, i64 %38
  store ptr null, ptr %39, align 8
  br label %40

40:                                               ; preds = %33
  %41 = load i32, ptr %1, align 4
  %42 = add i32 %41, 1
  store i32 %42, ptr %1, align 4
  br label %30, !llvm.loop !95

43:                                               ; preds = %30
  call void @llvm.lifetime.end.p0(i64 4, ptr %1) #18
  br label %44

44:                                               ; preds = %43, %21
  br label %45

45:                                               ; preds = %4, %44, %5
  ret void
}