; Function Attrs: nounwind null_pointer_is_valid sspstrong memory(readwrite, argmem: write) uwtable
define hidden void @State_init() local_unnamed_addr #12 {
  %1 = load ptr, ptr @x3a, align 8
  %.not = icmp eq ptr %1, null
  br i1 %.not, label %2, label %.loopexit

2:                                                ; preds = %0
  %3 = tail call noalias dereferenceable_or_null(24) ptr @malloc(i64 noundef 24) #44
  store ptr %3, ptr @x3a, align 8
  %.not5 = icmp eq ptr %3, null
  br i1 %.not5, label %.loopexit, label %4

4:                                                ; preds = %2
  store i32 128, ptr %3, align 8
  %5 = getelementptr inbounds nuw i8, ptr %3, i64 4
  store i32 0, ptr %5, align 4
  %6 = tail call noalias dereferenceable_or_null(5120) ptr @calloc(i64 noundef 128, i64 noundef 40) #40
  %7 = getelementptr inbounds nuw i8, ptr %3, i64 8
  store ptr %6, ptr %7, align 8
  %8 = icmp eq ptr %6, null
  br i1 %8, label %9, label %10

9:                                                ; preds = %4
  tail call void @free(ptr noundef nonnull %3) #42
  store ptr null, ptr @x3a, align 8
  br label %.loopexit

10:                                               ; preds = %4
  %11 = getelementptr i8, ptr %6, i64 4096
  %12 = getelementptr inbounds nuw i8, ptr %3, i64 16
  store ptr %11, ptr %12, align 8
  br label %13

13:                                               ; preds = %10, %13
  %indvars.iv = phi i64 [ 0, %10 ], [ %indvars.iv.next, %13 ]
  %14 = load ptr, ptr %12, align 8
  %15 = getelementptr ptr, ptr %14, i64 %indvars.iv
  store ptr null, ptr %15, align 8
  %indvars.iv.next = add nuw nsw i64 %indvars.iv, 1
  %exitcond.not = icmp eq i64 %indvars.iv.next, 128
  br i1 %exitcond.not, label %.loopexit, label %13, !llvm.loop !90

.loopexit:                                        ; preds = %13, %9, %0, %2
  ret void
}